target datalayout = "e-m:e-p270:32:32-p271:32:32-p272:64:64-i64:64-i128:128-f80:128-n8:16:32:64-S128"
target triple = "x86_64-unknown-linux-gnu"

%"class.std::__shared_count" = type { ptr }
%"struct.rocksdb::AdvancedColumnFamilyOptions" = type { i32, i32, i32, i64, i8, i64, double, ptr, double, i8, i64, %"class.std::shared_ptr", i32, i64, %"class.std::vector", i32, i32, i32, i64, i32, i8, i8, double, %"class.std::vector.0", i64, i8, i64, i64, i8, i8, [2 x i8], %"class.rocksdb::CompactionOptionsUniversal", %"struct.rocksdb::CompactionOptionsFIFO", i64, %"class.std::shared_ptr.10", %"class.std::vector.13", i64, i8, i8, i8, i8, i8, i64, i64, i64, i8, i8, i8, i64, i64, i8, i64, i64, i8, i8, double, double, i64, i32, %"class.std::shared_ptr.18", i8, i32, i8, i8, i32 }
%"class.std::shared_ptr" = type { %"class.std::__shared_ptr" }
%"class.std::__shared_ptr" = type { ptr, %"class.std::__shared_count" }
%"class.std::vector" = type { %"struct.std::_Vector_base" }
%"struct.std::_Vector_base" = type { %"struct.std::_Vector_base<rocksdb::CompressionType, std::allocator<rocksdb::CompressionType>>::_Vector_impl" }
%"struct.std::_Vector_base<rocksdb::CompressionType, std::allocator<rocksdb::CompressionType>>::_Vector_impl" = type { %"struct.std::_Vector_base<rocksdb::CompressionType, std::allocator<rocksdb::CompressionType>>::_Vector_impl_data" }
%"struct.std::_Vector_base<rocksdb::CompressionType, std::allocator<rocksdb::CompressionType>>::_Vector_impl_data" = type { ptr, ptr, ptr }
%"class.std::vector.0" = type { %"struct.std::_Vector_base.1" }
%"struct.std::_Vector_base.1" = type { %"struct.std::_Vector_base<int, std::allocator<int>>::_Vector_impl" }
%"struct.std::_Vector_base<int, std::allocator<int>>::_Vector_impl" = type { %"struct.std::_Vector_base<int, std::allocator<int>>::_Vector_impl_data" }
%"struct.std::_Vector_base<int, std::allocator<int>>::_Vector_impl_data" = type { ptr, ptr, ptr }
%"class.rocksdb::CompactionOptionsUniversal" = type <{ i32, i32, i32, i32, i32, i32, i8, i8, [2 x i8] }>
%"struct.rocksdb::CompactionOptionsFIFO" = type { i64, i8, i64, %"class.std::vector.5" }
%"class.std::vector.5" = type { %"struct.std::_Vector_base.6" }
%"struct.std::_Vector_base.6" = type { %"struct.std::_Vector_base<rocksdb::FileTemperatureAge, std::allocator<rocksdb::FileTemperatureAge>>::_Vector_impl" }
%"struct.std::_Vector_base<rocksdb::FileTemperatureAge, std::allocator<rocksdb::FileTemperatureAge>>::_Vector_impl" = type { %"struct.std::_Vector_base<rocksdb::FileTemperatureAge, std::allocator<rocksdb::FileTemperatureAge>>::_Vector_impl_data" }
%"struct.std::_Vector_base<rocksdb::FileTemperatureAge, std::allocator<rocksdb::FileTemperatureAge>>::_Vector_impl_data" = type { ptr, ptr, ptr }
%"class.std::shared_ptr.10" = type { %"class.std::__shared_ptr.11" }
%"class.std::__shared_ptr.11" = type { ptr, %"class.std::__shared_count" }
%"class.std::vector.13" = type { %"struct.std::_Vector_base.14" }
%"struct.std::_Vector_base.14" = type { %"struct.std::_Vector_base<std::shared_ptr<rocksdb::TablePropertiesCollectorFactory>, std::allocator<std::shared_ptr<rocksdb::TablePropertiesCollectorFactory>>>::_Vector_impl" }
%"struct.std::_Vector_base<std::shared_ptr<rocksdb::TablePropertiesCollectorFactory>, std::allocator<std::shared_ptr<rocksdb::TablePropertiesCollectorFactory>>>::_Vector_impl" = type { %"struct.std::_Vector_base<std::shared_ptr<rocksdb::TablePropertiesCollectorFactory>, std::allocator<std::shared_ptr<rocksdb::TablePropertiesCollectorFactory>>>::_Vector_impl_data" }
%"struct.std::_Vector_base<std::shared_ptr<rocksdb::TablePropertiesCollectorFactory>, std::allocator<std::shared_ptr<rocksdb::TablePropertiesCollectorFactory>>>::_Vector_impl_data" = type { ptr, ptr, ptr }
%"class.std::shared_ptr.18" = type { %"class.std::__shared_ptr.19" }
%"class.std::__shared_ptr.19" = type { ptr, %"class.std::__shared_count" }
%"struct.rocksdb::ColumnFamilyOptions" = type <{ %"struct.rocksdb::AdvancedColumnFamilyOptions", ptr, %"class.std::shared_ptr.63", ptr, %"class.std::shared_ptr.66", i64, i8, i8, [6 x i8], %"struct.rocksdb::CompressionOptions", %"struct.rocksdb::CompressionOptions", i32, [4 x i8], %"class.std::shared_ptr", i64, i64, i8, [7 x i8], %"class.std::shared_ptr.69", %"class.std::vector.41", %"class.std::shared_ptr.72", %"class.std::shared_ptr.75", i32, [4 x i8] }>
%"class.std::shared_ptr.63" = type { %"class.std::__shared_ptr.64" }
%"class.std::__shared_ptr.64" = type { ptr, %"class.std::__shared_count" }
%"class.std::shared_ptr.66" = type { %"class.std::__shared_ptr.67" }
%"class.std::__shared_ptr.67" = type { ptr, %"class.std::__shared_count" }
%"struct.rocksdb::CompressionOptions" = type <{ i32, i32, i32, i32, i32, i32, i8, [7 x i8], i64, i8, [3 x i8], i32, i8, [7 x i8] }>
%"class.std::shared_ptr.69" = type { %"class.std::__shared_ptr.70" }
%"class.std::__shared_ptr.70" = type { ptr, %"class.std::__shared_count" }
%"class.std::vector.41" = type { %"struct.std::_Vector_base.42" }
%"struct.std::_Vector_base.42" = type { %"struct.std::_Vector_base<rocksdb::DbPath, std::allocator<rocksdb::DbPath>>::_Vector_impl" }
%"struct.std::_Vector_base<rocksdb::DbPath, std::allocator<rocksdb::DbPath>>::_Vector_impl" = type { %"struct.std::_Vector_base<rocksdb::DbPath, std::allocator<rocksdb::DbPath>>::_Vector_impl_data" }
%"struct.std::_Vector_base<rocksdb::DbPath, std::allocator<rocksdb::DbPath>>::_Vector_impl_data" = type { ptr, ptr, ptr }
%"class.std::shared_ptr.72" = type { %"class.std::__shared_ptr.73" }
%"class.std::__shared_ptr.73" = type { ptr, %"class.std::__shared_count" }
%"class.std::shared_ptr.75" = type { %"class.std::__shared_ptr.76" }
%"class.std::__shared_ptr.76" = type { ptr, %"class.std::__shared_count" }

; Function Attrs: mustprogress nounwind uwtable
define noundef ptr @_ZN7rocksdb19ColumnFamilyOptions11OldDefaultsEii(ptr noundef nonnull align 8 dereferenceable(820) %this, i32 noundef %rocksdb_major_version, i32 noundef %rocksdb_minor_version) #1 align 2 {
entry:
  %this.addr = alloca ptr, align 8
  %rocksdb_major_version.addr = alloca i32, align 4
  %rocksdb_minor_version.addr = alloca i32, align 4
  store ptr %this, ptr %this.addr, align 8
  store i32 %rocksdb_major_version, ptr %rocksdb_major_version.addr, align 4
  store i32 %rocksdb_minor_version, ptr %rocksdb_minor_version.addr, align 4
  %this1 = load ptr, ptr %this.addr, align 8
  %0 = load i32, ptr %rocksdb_major_version.addr, align 4
  %cmp = icmp slt i32 %0, 5
  br i1 %cmp, label %if.then, label %lor.lhs.false

lor.lhs.false:                                    ; preds = %entry
  %1 = load i32, ptr %rocksdb_major_version.addr, align 4
  %cmp2 = icmp eq i32 %1, 5
  br i1 %cmp2, label %land.lhs.true, label %if.end

land.lhs.true:                                    ; preds = %lor.lhs.false
  %2 = load i32, ptr %rocksdb_minor_version.addr, align 4
  %cmp3 = icmp sle i32 %2, 18
  br i1 %cmp3, label %if.then, label %if.end

if.then:                                          ; preds = %land.lhs.true, %entry
  %compaction_pri = getelementptr inbounds %"struct.rocksdb::AdvancedColumnFamilyOptions", ptr %this1, i32 0, i32 29
  store i8 0, ptr %compaction_pri, align 1
  br label %if.end

if.end:                                           ; preds = %if.then, %land.lhs.true, %lor.lhs.false
  %3 = load i32, ptr %rocksdb_major_version.addr, align 4
  %cmp4 = icmp slt i32 %3, 4
  br i1 %cmp4, label %if.then9, label %lor.lhs.false5

lor.lhs.false5:                                   ; preds = %if.end
  %4 = load i32, ptr %rocksdb_major_version.addr, align 4
  %cmp6 = icmp eq i32 %4, 4
  br i1 %cmp6, label %land.lhs.true7, label %if.end10

land.lhs.true7:                                   ; preds = %lor.lhs.false5
  %5 = load i32, ptr %rocksdb_minor_version.addr, align 4
  %cmp8 = icmp slt i32 %5, 7
  br i1 %cmp8, label %if.then9, label %if.end10

if.then9:                                         ; preds = %land.lhs.true7, %if.end
  %write_buffer_size = getelementptr inbounds %"struct.rocksdb::ColumnFamilyOptions", ptr %this1, i32 0, i32 5
  store i64 4194304, ptr %write_buffer_size, align 8
  %target_file_size_base = getelementptr inbounds %"struct.rocksdb::AdvancedColumnFamilyOptions", ptr %this1, i32 0, i32 18
  store i64 2097152, ptr %target_file_size_base, align 8
  %max_bytes_for_level_base = getelementptr inbounds %"struct.rocksdb::ColumnFamilyOptions", ptr %this1, i32 0, i32 14
  store i64 10485760, ptr %max_bytes_for_level_base, align 8
  %soft_pending_compaction_bytes_limit = getelementptr inbounds %"struct.rocksdb::AdvancedColumnFamilyOptions", ptr %this1, i32 0, i32 26
  store i64 0, ptr %soft_pending_compaction_bytes_limit, align 8
  %hard_pending_compaction_bytes_limit = getelementptr inbounds %"struct.rocksdb::AdvancedColumnFamilyOptions", ptr %this1, i32 0, i32 27
  store i64 0, ptr %hard_pending_compaction_bytes_limit, align 8
  br label %if.end10

if.end10:                                         ; preds = %if.then9, %land.lhs.true7, %lor.lhs.false5
  %6 = load i32, ptr %rocksdb_major_version.addr, align 4
  %cmp11 = icmp slt i32 %6, 5
  br i1 %cmp11, label %if.then12, label %if.else

if.then12:                                        ; preds = %if.end10
  %level0_stop_writes_trigger = getelementptr inbounds %"struct.rocksdb::AdvancedColumnFamilyOptions", ptr %this1, i32 0, i32 17
  store i32 24, ptr %level0_stop_writes_trigger, align 8
  br label %if.end19

if.else:                                          ; preds = %if.end10
  %7 = load i32, ptr %rocksdb_major_version.addr, align 4
  %cmp13 = icmp eq i32 %7, 5
  br i1 %cmp13, label %land.lhs.true14, label %if.end18

land.lhs.true14:                                  ; preds = %if.else
  %8 = load i32, ptr %rocksdb_minor_version.addr, align 4
  %cmp15 = icmp slt i32 %8, 2
  br i1 %cmp15, label %if.then16, label %if.end18

if.then16:                                        ; preds = %land.lhs.true14
  %level0_stop_writes_trigger17 = getelementptr inbounds %"struct.rocksdb::AdvancedColumnFamilyOptions", ptr %this1, i32 0, i32 17
  store i32 30, ptr %level0_stop_writes_trigger17, align 8
  br label %if.end18

if.end18:                                         ; preds = %if.then16, %land.lhs.true14, %if.else
  br label %if.end19

if.end19:                                         ; preds = %if.end18, %if.then12
  ret ptr %this1
}