; Function Attrs: mustprogress nofree norecurse nosync nounwind willreturn memory(argmem: write) uwtable
define noundef nonnull ptr @_ZN7rocksdb19ColumnFamilyOptions11OldDefaultsEii(ptr noundef nonnull returned writeonly align 8 dereferenceable(820) %this, i32 noundef %rocksdb_major_version, i32 noundef %rocksdb_minor_version) local_unnamed_addr #8 align 2 {
entry:
  %cmp = icmp slt i32 %rocksdb_major_version, 5
  br i1 %cmp, label %if.end, label %lor.lhs.false

lor.lhs.false:                                    ; preds = %entry
  %cmp2 = icmp eq i32 %rocksdb_major_version, 5
  %cmp3 = icmp slt i32 %rocksdb_minor_version, 19
  %or.cond = and i1 %cmp2, %cmp3
  br i1 %or.cond, label %if.end.thread11, label %if.else

if.end.thread11:                                  ; preds = %lor.lhs.false
  %compaction_pri12 = getelementptr inbounds i8, ptr %this, i64 233
  store i8 0, ptr %compaction_pri12, align 1
  br label %if.else

if.end:                                           ; preds = %entry
  %compaction_pri = getelementptr inbounds i8, ptr %this, i64 233
  store i8 0, ptr %compaction_pri, align 1
  %cmp4 = icmp ne i32 %rocksdb_major_version, 4
  %cmp8 = icmp slt i32 %rocksdb_minor_version, 7
  %or.cond17 = or i1 %cmp4, %cmp8
  br i1 %or.cond17, label %if.then9, label %if.end19.sink.split

if.then9:                                         ; preds = %if.end
  %write_buffer_size = getelementptr inbounds i8, ptr %this, i64 568
  store i64 4194304, ptr %write_buffer_size, align 8
  %target_file_size_base = getelementptr inbounds i8, ptr %this, i64 152
  store i64 2097152, ptr %target_file_size_base, align 8
  %max_bytes_for_level_base = getelementptr inbounds i8, ptr %this, i64 720
  store i64 10485760, ptr %max_bytes_for_level_base, align 8
  %soft_pending_compaction_bytes_limit = getelementptr inbounds i8, ptr %this, i64 216
  tail call void @llvm.memset.p0.i64(ptr noundef nonnull align 8 dereferenceable(16) %soft_pending_compaction_bytes_limit, i8 0, i64 16, i1 false)
  br label %if.end19.sink.split

if.else:                                          ; preds = %lor.lhs.false, %if.end.thread11
  %cmp15 = icmp slt i32 %rocksdb_minor_version, 2
  %or.cond2 = and i1 %cmp2, %cmp15
  br i1 %or.cond2, label %if.end19.sink.split, label %if.end19

if.end19.sink.split:                              ; preds = %if.else, %if.then9, %if.end
  %.sink = phi i32 [ 24, %if.end ], [ 24, %if.then9 ], [ 30, %if.else ]
  %level0_stop_writes_trigger17 = getelementptr inbounds i8, ptr %this, i64 144
  store i32 %.sink, ptr %level0_stop_writes_trigger17, align 8
  br label %if.end19

if.end19:                                         ; preds = %if.end19.sink.split, %if.else
  ret ptr %this
}